target datalayout = "e-m:e-p270:32:32-p271:32:32-p272:64:64-i64:64-i128:128-f80:128-n8:16:32:64-S128"
target triple = "x86_64-pc-linux-gnu"

%"class.icu_77::Normalizer" = type <{ %"class.icu_77::UObject", ptr, ptr, i32, i32, ptr, i32, i32, %"class.icu_77::UnicodeString", i32, [4 x i8] }>
%"class.icu_77::UObject" = type { ptr }
%"class.icu_77::UnicodeString" = type { %"class.icu_77::Replaceable", %"union.icu_77::UnicodeString::StackBufferOrFields" }
%"class.icu_77::Replaceable" = type { %"class.icu_77::UObject" }
%"union.icu_77::UnicodeString::StackBufferOrFields" = type { %struct.anon.0, [32 x i8] }
%struct.anon.0 = type { i16, i32, i32, ptr }
%"class.icu_77::CharacterIterator" = type { %"class.icu_77::ForwardCharacterIterator", i32, i32, i32, i32 }
%"class.icu_77::ForwardCharacterIterator" = type { %"class.icu_77::UObject" }

; Function Attrs: inlinehint mustprogress nounwind uwtable
define linkonce_odr void @_ZN6icu_7713UnicodeString13setZeroLengthEv(ptr noundef nonnull align 8 dereferenceable(64) %0) #3 comdat align 2 {
  %2 = alloca ptr, align 8
  store ptr %0, ptr %2, align 8, !tbaa !8
  %3 = load ptr, ptr %2, align 8
  %4 = getelementptr inbounds nuw %"class.icu_77::UnicodeString", ptr %3, i32 0, i32 1
  %5 = getelementptr inbounds nuw %struct.anon.0, ptr %4, i32 0, i32 0
  %6 = load i16, ptr %5, align 8, !tbaa !32
  %7 = sext i16 %6 to i32
  %8 = and i32 %7, 31
  %9 = trunc i32 %8 to i16
  store i16 %9, ptr %5, align 8, !tbaa !32
  ret void
}

; Function Attrs: inlinehint mustprogress nounwind uwtable
define linkonce_odr void @_ZN6icu_7713UnicodeString10setToEmptyEv(ptr noundef nonnull align 8 dereferenceable(64) %0) #3 comdat align 2 {
  %2 = alloca ptr, align 8
  store ptr %0, ptr %2, align 8, !tbaa !8
  %3 = load ptr, ptr %2, align 8
  %4 = getelementptr inbounds nuw %"class.icu_77::UnicodeString", ptr %3, i32 0, i32 1
  %5 = getelementptr inbounds nuw %struct.anon.0, ptr %4, i32 0, i32 0
  store i16 2, ptr %5, align 8, !tbaa !32
  ret void
}

; Function Attrs: inlinehint mustprogress nounwind uwtable
define linkonce_odr noundef signext i8 @_ZNK6icu_7713UnicodeString7isBogusEv(ptr noundef nonnull align 8 dereferenceable(64) %0) #3 comdat align 2 {
  %2 = alloca ptr, align 8
  store ptr %0, ptr %2, align 8, !tbaa !8
  %3 = load ptr, ptr %2, align 8
  %4 = getelementptr inbounds nuw %"class.icu_77::UnicodeString", ptr %3, i32 0, i32 1
  %5 = getelementptr inbounds nuw %struct.anon.0, ptr %4, i32 0, i32 0
  %6 = load i16, ptr %5, align 8, !tbaa !32
  %7 = sext i16 %6 to i32
  %8 = and i32 %7, 1
  %9 = trunc i32 %8 to i8
  ret i8 %9
}

; Function Attrs: inlinehint mustprogress uwtable
define linkonce_odr noundef nonnull align 8 dereferenceable(64) ptr @_ZN6icu_7713UnicodeString6removeEv(ptr noundef nonnull align 8 dereferenceable(64) %0) #6 comdat align 2 {
  %2 = alloca ptr, align 8
  store ptr %0, ptr %2, align 8, !tbaa !8
  %3 = load ptr, ptr %2, align 8
  %4 = call noundef signext i8 @_ZNK6icu_7713UnicodeString7isBogusEv(ptr noundef nonnull align 8 dereferenceable(64) %3)
  %5 = icmp ne i8 %4, 0
  br i1 %5, label %6, label %7

6:                                                ; preds = %1
  call void @_ZN6icu_7713UnicodeString10setToEmptyEv(ptr noundef nonnull align 8 dereferenceable(64) %3)
  br label %8

7:                                                ; preds = %1
  call void @_ZN6icu_7713UnicodeString13setZeroLengthEv(ptr noundef nonnull align 8 dereferenceable(64) %3)
  br label %8

8:                                                ; preds = %7, %6
  ret ptr %3
}

; Function Attrs: mustprogress uwtable
define void @_ZN6icu_7710Normalizer11clearBufferEv(ptr noundef nonnull align 8 dereferenceable(116) %0) #1 align 2 {
  %2 = alloca ptr, align 8
  store ptr %0, ptr %2, align 8, !tbaa !3
  %3 = load ptr, ptr %2, align 8
  %4 = getelementptr inbounds nuw %"class.icu_77::Normalizer", ptr %3, i32 0, i32 8
  %5 = call noundef nonnull align 8 dereferenceable(64) ptr @_ZN6icu_7713UnicodeString6removeEv(ptr noundef nonnull align 8 dereferenceable(64) %4)
  %6 = getelementptr inbounds nuw %"class.icu_77::Normalizer", ptr %3, i32 0, i32 9
  store i32 0, ptr %6, align 8, !tbaa !29
  ret void
}

; Function Attrs: inlinehint mustprogress nounwind uwtable
define linkonce_odr noundef i32 @_ZNK6icu_7717CharacterIterator8getIndexEv(ptr noundef nonnull align 8 dereferenceable(24) %0) #3 comdat align 2 {
  %2 = alloca ptr, align 8
  store ptr %0, ptr %2, align 8, !tbaa !44
  %3 = load ptr, ptr %2, align 8
  %4 = getelementptr inbounds nuw %"class.icu_77::CharacterIterator", ptr %3, i32 0, i32 2
  %5 = load i32, ptr %4, align 4, !tbaa !53
  ret i32 %5
}

; Function Attrs: mustprogress uwtable
define void @_ZN6icu_7710Normalizer12setIndexOnlyEi(ptr noundef nonnull align 8 dereferenceable(116) %0, i32 noundef %1) #1 align 2 {
  %3 = alloca ptr, align 8
  %4 = alloca i32, align 4
  store ptr %0, ptr %3, align 8, !tbaa !3
  store i32 %1, ptr %4, align 4, !tbaa !37
  %5 = load ptr, ptr %3, align 8
  %6 = getelementptr inbounds nuw %"class.icu_77::Normalizer", ptr %5, i32 0, i32 5
  %7 = load ptr, ptr %6, align 8, !tbaa !26
  %8 = load i32, ptr %4, align 4, !tbaa !37
  %9 = load ptr, ptr %7, align 8, !tbaa !12
  %10 = getelementptr inbounds ptr, ptr %9, i64 15
  %11 = load ptr, ptr %10, align 8
  %12 = call noundef zeroext i16 %11(ptr noundef nonnull align 8 dereferenceable(24) %7, i32 noundef %8)
  %13 = getelementptr inbounds nuw %"class.icu_77::Normalizer", ptr %5, i32 0, i32 5
  %14 = load ptr, ptr %13, align 8, !tbaa !26
  %15 = call noundef i32 @_ZNK6icu_7717CharacterIterator8getIndexEv(ptr noundef nonnull align 8 dereferenceable(24) %14)
  %16 = getelementptr inbounds nuw %"class.icu_77::Normalizer", ptr %5, i32 0, i32 7
  store i32 %15, ptr %16, align 4, !tbaa !28
  %17 = getelementptr inbounds nuw %"class.icu_77::Normalizer", ptr %5, i32 0, i32 6
  store i32 %15, ptr %17, align 8, !tbaa !27
  call void @_ZN6icu_7710Normalizer11clearBufferEv(ptr noundef nonnull align 8 dereferenceable(116) %5)
  ret void
}