; Function Attrs: mustprogress uwtable
define void @_ZN6icu_7710Normalizer12setIndexOnlyEi(ptr noundef nonnull align 8 captures(none) dereferenceable(116) initializes((40, 48), (112, 116)) %0, i32 noundef %1) local_unnamed_addr #1 align 2 {
  %3 = getelementptr inbounds nuw i8, ptr %0, i64 32
  %4 = load ptr, ptr %3, align 8, !tbaa !19
  %5 = load ptr, ptr %4, align 8, !tbaa !3
  %6 = getelementptr inbounds nuw i8, ptr %5, i64 120
  %7 = load ptr, ptr %6, align 8
  %8 = tail call noundef zeroext i16 %7(ptr noundef nonnull align 8 dereferenceable(24) %4, i32 noundef %1)
  %9 = load ptr, ptr %3, align 8, !tbaa !19
  %10 = getelementptr inbounds nuw i8, ptr %9, i64 12
  %11 = load i32, ptr %10, align 4, !tbaa !36
  %12 = getelementptr inbounds nuw i8, ptr %0, i64 44
  store i32 %11, ptr %12, align 4, !tbaa !21
  %13 = getelementptr inbounds nuw i8, ptr %0, i64 40
  store i32 %11, ptr %13, align 8, !tbaa !20
  %14 = getelementptr inbounds nuw i8, ptr %0, i64 56
  %15 = load i16, ptr %14, align 8, !tbaa !22
  %16 = and i16 %15, 1
  %.not.i.i = icmp eq i16 %16, 0
  %17 = and i16 %15, 30
  %storemerge.i.i = select i1 %.not.i.i, i16 %17, i16 2
  store i16 %storemerge.i.i, ptr %14, align 8, !tbaa !22
  %18 = getelementptr inbounds nuw i8, ptr %0, i64 112
  store i32 0, ptr %18, align 8, !tbaa !23
  ret void
}